; Function Attrs: inlinehint mustprogress nounwind uwtable
define internal fastcc void @_ZN12_GLOBAL__N_118ConnwrappersWorker10portdecl_tD2Ev(ptr noundef nonnull readonly align 8 captures(address) dereferenceable(65) %0) unnamed_addr #4 align 2 personality ptr @__gxx_personality_v0 {
  %2 = getelementptr inbounds nuw i8, ptr %0, i64 32
  %3 = load ptr, ptr %2, align 8, !tbaa !26
  %4 = getelementptr inbounds nuw i8, ptr %0, i64 48
  %5 = icmp eq ptr %3, %4
  br i1 %5, label %_ZNKSt7__cxx1112basic_stringIcSt11char_traitsIcESaIcEE11_M_is_localEv.exit.thread.i.i, label %_ZNKSt7__cxx1112basic_stringIcSt11char_traitsIcESaIcEE11_M_is_localEv.exit.i.i

_ZNKSt7__cxx1112basic_stringIcSt11char_traitsIcESaIcEE11_M_is_localEv.exit.thread.i.i: ; preds = %1
  %6 = getelementptr inbounds nuw i8, ptr %0, i64 40
  %7 = load i64, ptr %6, align 8, !tbaa !28
  %8 = icmp ult i64 %7, 16
  tail call void @llvm.assume(i1 %8)
  br label %_ZNSt7__cxx1112basic_stringIcSt11char_traitsIcESaIcEED2Ev.exit

_ZNKSt7__cxx1112basic_stringIcSt11char_traitsIcESaIcEE11_M_is_localEv.exit.i.i: ; preds = %1
  %9 = load i64, ptr %4, align 8, !tbaa !30
  %10 = add i64 %9, 1
  tail call void @_ZdlPvm(ptr noundef %3, i64 noundef %10) #25
  br label %_ZNSt7__cxx1112basic_stringIcSt11char_traitsIcESaIcEED2Ev.exit

_ZNSt7__cxx1112basic_stringIcSt11char_traitsIcESaIcEED2Ev.exit: ; preds = %_ZNKSt7__cxx1112basic_stringIcSt11char_traitsIcESaIcEE11_M_is_localEv.exit.thread.i.i, %_ZNKSt7__cxx1112basic_stringIcSt11char_traitsIcESaIcEE11_M_is_localEv.exit.i.i
  %11 = load ptr, ptr %0, align 8, !tbaa !26
  %12 = getelementptr inbounds nuw i8, ptr %0, i64 16
  %13 = icmp eq ptr %11, %12
  br i1 %13, label %_ZNKSt7__cxx1112basic_stringIcSt11char_traitsIcESaIcEE11_M_is_localEv.exit.thread.i.i2, label %_ZNKSt7__cxx1112basic_stringIcSt11char_traitsIcESaIcEE11_M_is_localEv.exit.i.i1

_ZNKSt7__cxx1112basic_stringIcSt11char_traitsIcESaIcEE11_M_is_localEv.exit.thread.i.i2: ; preds = %_ZNSt7__cxx1112basic_stringIcSt11char_traitsIcESaIcEED2Ev.exit
  %14 = getelementptr inbounds nuw i8, ptr %0, i64 8
  %15 = load i64, ptr %14, align 8, !tbaa !28
  %16 = icmp ult i64 %15, 16
  tail call void @llvm.assume(i1 %16)
  br label %_ZNSt7__cxx1112basic_stringIcSt11char_traitsIcESaIcEED2Ev.exit3

_ZNKSt7__cxx1112basic_stringIcSt11char_traitsIcESaIcEE11_M_is_localEv.exit.i.i1: ; preds = %_ZNSt7__cxx1112basic_stringIcSt11char_traitsIcESaIcEED2Ev.exit
  %17 = load i64, ptr %12, align 8, !tbaa !30
  %18 = add i64 %17, 1
  tail call void @_ZdlPvm(ptr noundef %11, i64 noundef %18) #25
  br label %_ZNSt7__cxx1112basic_stringIcSt11char_traitsIcESaIcEED2Ev.exit3

_ZNSt7__cxx1112basic_stringIcSt11char_traitsIcESaIcEED2Ev.exit3: ; preds = %_ZNKSt7__cxx1112basic_stringIcSt11char_traitsIcESaIcEE11_M_is_localEv.exit.thread.i.i2, %_ZNKSt7__cxx1112basic_stringIcSt11char_traitsIcESaIcEE11_M_is_localEv.exit.i.i1
  ret void
}